target datalayout = "e-m:e-p270:32:32-p271:32:32-p272:64:64-i64:64-i128:128-f80:128-n8:16:32:64-S128"
target triple = "x86_64-pc-linux-gnu"

@.str = private unnamed_addr constant [29 x i8] c"%s:%u: failed assertion \22%s\22\00", align 1
@.str.1 = private unnamed_addr constant [29 x i8] c"epan/dissectors/packet-osi.c\00", align 1
@.str.2 = private unnamed_addr constant [23 x i8] c"offset_check >= offset\00", align 1
@.str.3 = private unnamed_addr constant [53 x i8] c"(unsigned)offset_check + 2 <= (unsigned)offset + len\00", align 1

; Function Attrs: null_pointer_is_valid sspstrong uwtable
define hidden zeroext i1 @osi_check_and_get_checksum(ptr noundef %0, i32 noundef %1, i32 noundef %2, i32 noundef %3, ptr noundef %4) #0 {
  %6 = alloca i1, align 1
  %7 = alloca ptr, align 8
  %8 = alloca i32, align 4
  %9 = alloca i32, align 4
  %10 = alloca i32, align 4
  %11 = alloca ptr, align 8
  %12 = alloca ptr, align 8
  %13 = alloca i8, align 1
  %14 = alloca i32, align 4
  %15 = alloca i32, align 4
  %16 = alloca i32, align 4
  %17 = alloca i32, align 4
  %18 = alloca i32, align 4
  %19 = alloca i32, align 4
  %20 = alloca i32, align 4
  %21 = alloca i32, align 4
  %22 = alloca i32, align 4
  %23 = alloca i32, align 4
  store ptr %0, ptr %7, align 8
  store i32 %1, ptr %8, align 4
  store i32 %2, ptr %9, align 4
  store i32 %3, ptr %10, align 4
  store ptr %4, ptr %11, align 8
  call void @llvm.lifetime.start.p0(i64 8, ptr %12) #4
  call void @llvm.lifetime.start.p0(i64 1, ptr %13) #4
  store i8 0, ptr %13, align 1
  call void @llvm.lifetime.start.p0(i64 4, ptr %14) #4
  call void @llvm.lifetime.start.p0(i64 4, ptr %15) #4
  call void @llvm.lifetime.start.p0(i64 4, ptr %16) #4
  call void @llvm.lifetime.start.p0(i64 4, ptr %17) #4
  call void @llvm.lifetime.start.p0(i64 4, ptr %18) #4
  %24 = load i32, ptr %9, align 4
  store i32 %24, ptr %18, align 4
  call void @llvm.lifetime.start.p0(i64 4, ptr %19) #4
  call void @llvm.lifetime.start.p0(i64 4, ptr %20) #4
  call void @llvm.lifetime.start.p0(i64 4, ptr %21) #4
  call void @llvm.lifetime.start.p0(i64 4, ptr %22) #4
  %25 = load i32, ptr %10, align 4
  %26 = load i32, ptr %8, align 4
  %27 = icmp sge i32 %25, %26
  br i1 %27, label %28, label %29

28:                                               ; preds = %5
  br label %31

29:                                               ; preds = %5
  call void (ptr, ...) @proto_report_dissector_bug(ptr noundef @.str, ptr noundef @.str.1, i32 noundef 99, ptr noundef @.str.2) #5
  unreachable

30:                                               ; No predecessors!
  br label %31

31:                                               ; preds = %30, %28
  %32 = load i32, ptr %10, align 4
  %33 = add i32 %32, 2
  %34 = load i32, ptr %8, align 4
  %35 = load i32, ptr %9, align 4
  %36 = add i32 %34, %35
  %37 = icmp ule i32 %33, %36
  br i1 %37, label %38, label %39

38:                                               ; preds = %31
  br label %41

39:                                               ; preds = %31
  call void (ptr, ...) @proto_report_dissector_bug(ptr noundef @.str, ptr noundef @.str.1, i32 noundef 100, ptr noundef @.str.3) #5
  unreachable

40:                                               ; No predecessors!
  br label %41

41:                                               ; preds = %40, %38
  %42 = load ptr, ptr %7, align 8
  %43 = load i32, ptr %8, align 4
  %44 = load i32, ptr %9, align 4
  %45 = call zeroext i1 @tvb_bytes_exist(ptr noundef %42, i32 noundef %43, i32 noundef %44)
  br i1 %45, label %47, label %46

46:                                               ; preds = %41
  store i1 false, ptr %6, align 1
  store i32 1, ptr %23, align 4
  br label %157

47:                                               ; preds = %41
  %48 = load i32, ptr %8, align 4
  %49 = load i32, ptr %10, align 4
  %50 = sub i32 %49, %48
  store i32 %50, ptr %10, align 4
  %51 = load ptr, ptr %7, align 8
  %52 = load i32, ptr %8, align 4
  %53 = load i32, ptr %9, align 4
  %54 = call ptr @tvb_get_ptr(ptr noundef %51, i32 noundef %52, i32 noundef %53)
  store ptr %54, ptr %12, align 8
  %55 = load i32, ptr %10, align 4
  %56 = sdiv i32 %55, 5803
  store i32 %56, ptr %20, align 4
  store i32 0, ptr %14, align 4
  store i32 0, ptr %15, align 4
  br label %57

57:                                               ; preds = %103, %47
  %58 = load i32, ptr %9, align 4
  %59 = icmp ne i32 %58, 0
  br i1 %59, label %60, label %111

60:                                               ; preds = %57
  %61 = load i32, ptr %9, align 4
  store i32 %61, ptr %17, align 4
  %62 = load i32, ptr %20, align 4
  %63 = add i32 %62, -1
  store i32 %63, ptr %20, align 4
  %64 = icmp eq i32 %62, 0
  br i1 %64, label %65, label %68

65:                                               ; preds = %60
  %66 = load i32, ptr %10, align 4
  %67 = srem i32 %66, 5803
  store i32 %67, ptr %17, align 4
  store i8 1, ptr %13, align 1
  br label %73

68:                                               ; preds = %60
  %69 = load i32, ptr %17, align 4
  %70 = icmp ugt i32 %69, 5803
  br i1 %70, label %71, label %72

71:                                               ; preds = %68
  store i32 5803, ptr %17, align 4
  br label %72

72:                                               ; preds = %71, %68
  br label %73

73:                                               ; preds = %72, %65
  store i32 0, ptr %19, align 4
  br label %74

74:                                               ; preds = %88, %73
  %75 = load i32, ptr %19, align 4
  %76 = load i32, ptr %17, align 4
  %77 = icmp ult i32 %75, %76
  br i1 %77, label %78, label %91

78:                                               ; preds = %74
  %79 = load i32, ptr %14, align 4
  %80 = load ptr, ptr %12, align 8
  %81 = getelementptr i8, ptr %80, i32 1
  store ptr %81, ptr %12, align 8
  %82 = load i8, ptr %80, align 1
  %83 = zext i8 %82 to i32
  %84 = add i32 %79, %83
  store i32 %84, ptr %14, align 4
  %85 = load i32, ptr %14, align 4
  %86 = load i32, ptr %15, align 4
  %87 = add i32 %86, %85
  store i32 %87, ptr %15, align 4
  br label %88

88:                                               ; preds = %78
  %89 = load i32, ptr %19, align 4
  %90 = add i32 %89, 1
  store i32 %90, ptr %19, align 4
  br label %74, !llvm.loop !9

91:                                               ; preds = %74
  %92 = load i8, ptr %13, align 1
  %93 = icmp ne i8 %92, 0
  br i1 %93, label %94, label %103

94:                                               ; preds = %91
  %95 = load ptr, ptr %12, align 8
  %96 = getelementptr i8, ptr %95, i64 2
  store ptr %96, ptr %12, align 8
  %97 = load i32, ptr %14, align 4
  %98 = mul i32 2, %97
  %99 = load i32, ptr %15, align 4
  %100 = add i32 %99, %98
  store i32 %100, ptr %15, align 4
  %101 = load i32, ptr %9, align 4
  %102 = sub i32 %101, 2
  store i32 %102, ptr %9, align 4
  store i8 0, ptr %13, align 1
  br label %103

103:                                              ; preds = %94, %91
  %104 = load i32, ptr %14, align 4
  %105 = urem i32 %104, 255
  store i32 %105, ptr %14, align 4
  %106 = load i32, ptr %15, align 4
  %107 = urem i32 %106, 255
  store i32 %107, ptr %15, align 4
  %108 = load i32, ptr %17, align 4
  %109 = load i32, ptr %9, align 4
  %110 = sub i32 %109, %108
  store i32 %110, ptr %9, align 4
  br label %57, !llvm.loop !10

111:                                              ; preds = %57
  %112 = load i32, ptr %18, align 4
  %113 = load i32, ptr %10, align 4
  %114 = sub i32 %112, %113
  %115 = load i32, ptr %14, align 4
  %116 = mul i32 %114, %115
  store i32 %116, ptr %16, align 4
  %117 = load i32, ptr %16, align 4
  %118 = load i32, ptr %14, align 4
  %119 = sub i32 %117, %118
  %120 = load i32, ptr %15, align 4
  %121 = sub i32 %119, %120
  store i32 %121, ptr %21, align 4
  %122 = load i32, ptr %15, align 4
  %123 = load i32, ptr %16, align 4
  %124 = sub i32 %122, %123
  %125 = sub i32 %124, 1
  store i32 %125, ptr %22, align 4
  %126 = load i32, ptr %21, align 4
  %127 = icmp slt i32 %126, 0
  br i1 %127, label %128, label %131

128:                                              ; preds = %111
  %129 = load i32, ptr %21, align 4
  %130 = add i32 %129, -1
  store i32 %130, ptr %21, align 4
  br label %131

131:                                              ; preds = %128, %111
  %132 = load i32, ptr %22, align 4
  %133 = icmp sgt i32 %132, 0
  br i1 %133, label %134, label %137

134:                                              ; preds = %131
  %135 = load i32, ptr %22, align 4
  %136 = add i32 %135, 1
  store i32 %136, ptr %22, align 4
  br label %137

137:                                              ; preds = %134, %131
  %138 = load i32, ptr %21, align 4
  %139 = srem i32 %138, 255
  store i32 %139, ptr %21, align 4
  %140 = load i32, ptr %22, align 4
  %141 = srem i32 %140, 255
  store i32 %141, ptr %22, align 4
  %142 = load i32, ptr %21, align 4
  %143 = icmp eq i32 %142, 0
  br i1 %143, label %144, label %145

144:                                              ; preds = %137
  store i32 255, ptr %21, align 4
  br label %145

145:                                              ; preds = %144, %137
  %146 = load i32, ptr %22, align 4
  %147 = icmp eq i32 %146, 0
  br i1 %147, label %148, label %149

148:                                              ; preds = %145
  store i32 1, ptr %22, align 4
  br label %149

149:                                              ; preds = %148, %145
  %150 = load i32, ptr %21, align 4
  %151 = shl i32 %150, 8
  %152 = load i32, ptr %22, align 4
  %153 = and i32 %152, 255
  %154 = or i32 %151, %153
  %155 = trunc i32 %154 to i16
  %156 = load ptr, ptr %11, align 8
  store i16 %155, ptr %156, align 2
  store i1 true, ptr %6, align 1
  store i32 1, ptr %23, align 4
  br label %157

157:                                              ; preds = %149, %46
  call void @llvm.lifetime.end.p0(i64 4, ptr %22) #4
  call void @llvm.lifetime.end.p0(i64 4, ptr %21) #4
  call void @llvm.lifetime.end.p0(i64 4, ptr %20) #4
  call void @llvm.lifetime.end.p0(i64 4, ptr %19) #4
  call void @llvm.lifetime.end.p0(i64 4, ptr %18) #4
  call void @llvm.lifetime.end.p0(i64 4, ptr %17) #4
  call void @llvm.lifetime.end.p0(i64 4, ptr %16) #4
  call void @llvm.lifetime.end.p0(i64 4, ptr %15) #4
  call void @llvm.lifetime.end.p0(i64 4, ptr %14) #4
  call void @llvm.lifetime.end.p0(i64 1, ptr %13) #4
  call void @llvm.lifetime.end.p0(i64 8, ptr %12) #4
  %158 = load i1, ptr %6, align 1
  ret i1 %158
}