; Function Attrs: null_pointer_is_valid sspstrong uwtable
define hidden noundef zeroext i1 @osi_check_and_get_checksum(ptr noundef %0, i32 noundef %1, i32 noundef %2, i32 noundef %3, ptr noundef writeonly captures(none) %4) local_unnamed_addr #0 {
  %.not = icmp slt i32 %3, %1
  br i1 %.not, label %6, label %7

6:                                                ; preds = %5
  tail call void (ptr, ...) @proto_report_dissector_bug(ptr noundef nonnull @.str, ptr noundef nonnull @.str.1, i32 noundef 99, ptr noundef nonnull @.str.2) #4
  unreachable

7:                                                ; preds = %5
  %8 = add i32 %3, 2
  %9 = add i32 %2, %1
  %.not78 = icmp ugt i32 %8, %9
  br i1 %.not78, label %10, label %11

10:                                               ; preds = %7
  tail call void (ptr, ...) @proto_report_dissector_bug(ptr noundef nonnull @.str, ptr noundef nonnull @.str.1, i32 noundef 100, ptr noundef nonnull @.str.3) #4
  unreachable

11:                                               ; preds = %7
  %12 = tail call zeroext i1 @tvb_bytes_exist(ptr noundef %0, i32 noundef %1, i32 noundef %2)
  br i1 %12, label %13, label %49

13:                                               ; preds = %11
  %14 = sub i32 %3, %1
  %15 = tail call ptr @tvb_get_ptr(ptr noundef %0, i32 noundef %1, i32 noundef %2)
  %.not7988 = icmp eq i32 %2, 0
  br i1 %.not7988, label %._crit_edge96, label %.lr.ph95

.lr.ph95:                                         ; preds = %13
  %16 = sdiv i32 %14, 5803
  %17 = srem i32 %14, 5803
  br label %18

18:                                               ; preds = %.lr.ph95, %._crit_edge
  %.05893 = phi i32 [ %16, %.lr.ph95 ], [ %19, %._crit_edge ]
  %.06292 = phi i32 [ %2, %.lr.ph95 ], [ %33, %._crit_edge ]
  %.06391 = phi i32 [ 0, %.lr.ph95 ], [ %32, %._crit_edge ]
  %.06590 = phi i32 [ 0, %.lr.ph95 ], [ %31, %._crit_edge ]
  %.07089 = phi ptr [ %15, %.lr.ph95 ], [ %.272, %._crit_edge ]
  %19 = add i32 %.05893, -1
  %.not81 = icmp eq i32 %.05893, 0
  %spec.store.select = tail call i32 @llvm.umin.i32(i32 %.06292, i32 5803)
  %.061 = select i1 %.not81, i32 %17, i32 %spec.store.select
  %.not99 = icmp eq i32 %.061, 0
  br i1 %.not99, label %._crit_edge, label %.lr.ph.preheader

.lr.ph.preheader:                                 ; preds = %18
  %20 = add nsw i32 %.061, -1
  %21 = zext i32 %20 to i64
  br label %.lr.ph

.lr.ph:                                           ; preds = %.lr.ph.preheader, %.lr.ph
  %.05985 = phi i32 [ %27, %.lr.ph ], [ 0, %.lr.ph.preheader ]
  %.16484 = phi i32 [ %26, %.lr.ph ], [ %.06391, %.lr.ph.preheader ]
  %.16683 = phi i32 [ %25, %.lr.ph ], [ %.06590, %.lr.ph.preheader ]
  %.17182 = phi ptr [ %22, %.lr.ph ], [ %.07089, %.lr.ph.preheader ]
  %22 = getelementptr i8, ptr %.17182, i64 1
  %23 = load i8, ptr %.17182, align 1
  %24 = zext i8 %23 to i32
  %25 = add i32 %.16683, %24
  %26 = add i32 %25, %.16484
  %27 = add nuw i32 %.05985, 1
  %exitcond.not = icmp eq i32 %27, %.061
  br i1 %exitcond.not, label %._crit_edge.loopexit, label %.lr.ph, !llvm.loop !9

._crit_edge.loopexit:                             ; preds = %.lr.ph
  %scevgep = getelementptr i8, ptr %.07089, i64 1
  %scevgep104 = getelementptr i8, ptr %scevgep, i64 %21
  br label %._crit_edge

._crit_edge:                                      ; preds = %._crit_edge.loopexit, %18
  %.171.lcssa = phi ptr [ %.07089, %18 ], [ %scevgep104, %._crit_edge.loopexit ]
  %.166.lcssa = phi i32 [ %.06590, %18 ], [ %25, %._crit_edge.loopexit ]
  %.164.lcssa = phi i32 [ %.06391, %18 ], [ %26, %._crit_edge.loopexit ]
  %28 = shl i32 %.166.lcssa, 1
  %29 = add i32 %.06292, -2
  %.272.idx = select i1 %.not81, i64 2, i64 0
  %.272 = getelementptr i8, ptr %.171.lcssa, i64 %.272.idx
  %30 = select i1 %.not81, i32 %28, i32 0
  %.2 = add i32 %30, %.164.lcssa
  %.1 = select i1 %.not81, i32 %29, i32 %.06292
  %31 = urem i32 %.166.lcssa, 255
  %32 = urem i32 %.2, 255
  %33 = sub i32 %.1, %.061
  %.not79 = icmp eq i32 %33, 0
  br i1 %.not79, label %._crit_edge96, label %18, !llvm.loop !10

._crit_edge96:                                    ; preds = %._crit_edge, %13
  %.065.lcssa = phi i32 [ 0, %13 ], [ %31, %._crit_edge ]
  %.063.lcssa = phi i32 [ 0, %13 ], [ %32, %._crit_edge ]
  %34 = sub i32 %2, %14
  %35 = mul i32 %.065.lcssa, %34
  %36 = add nuw nsw i32 %.063.lcssa, %.065.lcssa
  %37 = sub i32 %35, %36
  %38 = sub i32 %.063.lcssa, %35
  %39 = add i32 %38, -1
  %.lobit = ashr i32 %37, 31
  %spec.select = add i32 %.lobit, %37
  %40 = icmp sgt i32 %39, 0
  %.0 = select i1 %40, i32 %38, i32 %39
  %41 = srem i32 %spec.select, 255
  %42 = srem i32 %.0, 255
  %43 = icmp eq i32 %41, 0
  %spec.store.select2 = tail call i32 @llvm.umax.i32(i32 %42, i32 1)
  %44 = shl nsw i32 %41, 8
  %45 = select i1 %43, i32 65280, i32 %44
  %46 = and i32 %spec.store.select2, 255
  %47 = or disjoint i32 %45, %46
  %48 = trunc i32 %47 to i16
  store i16 %48, ptr %4, align 2
  br label %49

49:                                               ; preds = %11, %._crit_edge96
  ret i1 %12
}